target datalayout = "e-m:e-p270:32:32-p271:32:32-p272:64:64-i64:64-i128:128-f80:128-n8:16:32:64-S128"
target triple = "x86_64-pc-linux-gnu"

%struct.strbuf = type { i64, i64, ptr }
%struct.list_objects_filter_options = type { %struct.strbuf, i32, i8, ptr, i64, i64, i32, i64, i64, ptr }

@.str.33 = private unnamed_addr constant [27 x i8] c"size_t overflow: %lu * %lu\00", align 1

; Function Attrs: inlinehint nounwind uwtable
define internal i64 @st_mult(i64 noundef %0, i64 noundef %1) #4 {
  %3 = alloca i64, align 8
  %4 = alloca i64, align 8
  store i64 %0, ptr %3, align 8, !tbaa !28
  store i64 %1, ptr %4, align 8, !tbaa !28
  %5 = load i64, ptr %3, align 8, !tbaa !28
  %6 = icmp ne i64 %5, 0
  br i1 %6, label %7, label %15

7:                                                ; preds = %2
  %8 = load i64, ptr %4, align 8, !tbaa !28
  %9 = load i64, ptr %3, align 8, !tbaa !28
  %10 = udiv i64 -1, %9
  %11 = icmp ugt i64 %8, %10
  br i1 %11, label %12, label %15

12:                                               ; preds = %7
  %13 = load i64, ptr %3, align 8, !tbaa !28
  %14 = load i64, ptr %4, align 8, !tbaa !28
  call void (ptr, ...) @die(ptr noundef @.str.33, i64 noundef %13, i64 noundef %14) #9
  unreachable

15:                                               ; preds = %7, %2
  %16 = load i64, ptr %3, align 8, !tbaa !28
  %17 = load i64, ptr %4, align 8, !tbaa !28
  %18 = mul i64 %16, %17
  ret i64 %18
}

; Function Attrs: inlinehint nounwind uwtable
define internal ptr @xstrdup_or_null(ptr noundef %0) #4 {
  %2 = alloca ptr, align 8
  store ptr %0, ptr %2, align 8, !tbaa !11
  %3 = load ptr, ptr %2, align 8, !tbaa !11
  %4 = icmp ne ptr %3, null
  br i1 %4, label %5, label %8

5:                                                ; preds = %1
  %6 = load ptr, ptr %2, align 8, !tbaa !11
  %7 = call ptr @xstrdup(ptr noundef %6)
  br label %9

8:                                                ; preds = %1
  br label %9

9:                                                ; preds = %8, %5
  %10 = phi ptr [ %7, %5 ], [ null, %8 ]
  ret ptr %10
}

; Function Attrs: nounwind uwtable
define dso_local void @list_objects_filter_copy(ptr noundef %0, ptr noundef %1) #0 {
  %3 = alloca ptr, align 8
  %4 = alloca ptr, align 8
  %5 = alloca i64, align 8
  store ptr %0, ptr %3, align 8, !tbaa !8
  store ptr %1, ptr %4, align 8, !tbaa !8
  %6 = load ptr, ptr %3, align 8, !tbaa !8
  %7 = load ptr, ptr %4, align 8, !tbaa !8
  call void @llvm.memcpy.p0.p0.i64(ptr align 8 %6, ptr align 8 %7, i64 88, i1 false)
  %8 = load ptr, ptr %3, align 8, !tbaa !8
  %9 = getelementptr inbounds nuw %struct.list_objects_filter_options, ptr %8, i32 0, i32 0
  call void @strbuf_init(ptr noundef %9, i64 noundef 0)
  %10 = load ptr, ptr %3, align 8, !tbaa !8
  %11 = getelementptr inbounds nuw %struct.list_objects_filter_options, ptr %10, i32 0, i32 0
  %12 = load ptr, ptr %4, align 8, !tbaa !8
  %13 = getelementptr inbounds nuw %struct.list_objects_filter_options, ptr %12, i32 0, i32 0
  call void @strbuf_addbuf(ptr noundef %11, ptr noundef %13)
  %14 = load ptr, ptr %4, align 8, !tbaa !8
  %15 = getelementptr inbounds nuw %struct.list_objects_filter_options, ptr %14, i32 0, i32 3
  %16 = load ptr, ptr %15, align 8, !tbaa !19
  %17 = call ptr @xstrdup_or_null(ptr noundef %16)
  %18 = load ptr, ptr %3, align 8, !tbaa !8
  %19 = getelementptr inbounds nuw %struct.list_objects_filter_options, ptr %18, i32 0, i32 3
  store ptr %17, ptr %19, align 8, !tbaa !19
  %20 = load ptr, ptr %3, align 8, !tbaa !8
  %21 = getelementptr inbounds nuw %struct.list_objects_filter_options, ptr %20, i32 0, i32 8
  %22 = load i64, ptr %21, align 8, !tbaa !34
  %23 = call i64 @st_mult(i64 noundef 88, i64 noundef %22)
  %24 = call ptr @xmalloc(i64 noundef %23)
  %25 = load ptr, ptr %3, align 8, !tbaa !8
  %26 = getelementptr inbounds nuw %struct.list_objects_filter_options, ptr %25, i32 0, i32 9
  store ptr %24, ptr %26, align 8, !tbaa !35
  call void @llvm.lifetime.start.p0(i64 8, ptr %5) #10
  store i64 0, ptr %5, align 8, !tbaa !28
  br label %27

27:                                               ; preds = %45, %2
  %28 = load i64, ptr %5, align 8, !tbaa !28
  %29 = load ptr, ptr %4, align 8, !tbaa !8
  %30 = getelementptr inbounds nuw %struct.list_objects_filter_options, ptr %29, i32 0, i32 7
  %31 = load i64, ptr %30, align 8, !tbaa !33
  %32 = icmp ult i64 %28, %31
  br i1 %32, label %34, label %33

33:                                               ; preds = %27
  call void @llvm.lifetime.end.p0(i64 8, ptr %5) #10
  br label %48

34:                                               ; preds = %27
  %35 = load ptr, ptr %3, align 8, !tbaa !8
  %36 = getelementptr inbounds nuw %struct.list_objects_filter_options, ptr %35, i32 0, i32 9
  %37 = load ptr, ptr %36, align 8, !tbaa !35
  %38 = load i64, ptr %5, align 8, !tbaa !28
  %39 = getelementptr inbounds nuw %struct.list_objects_filter_options, ptr %37, i64 %38
  %40 = load ptr, ptr %4, align 8, !tbaa !8
  %41 = getelementptr inbounds nuw %struct.list_objects_filter_options, ptr %40, i32 0, i32 9
  %42 = load ptr, ptr %41, align 8, !tbaa !35
  %43 = load i64, ptr %5, align 8, !tbaa !28
  %44 = getelementptr inbounds nuw %struct.list_objects_filter_options, ptr %42, i64 %43
  call void @list_objects_filter_copy(ptr noundef %39, ptr noundef %44)
  br label %45

45:                                               ; preds = %34
  %46 = load i64, ptr %5, align 8, !tbaa !28
  %47 = add i64 %46, 1
  store i64 %47, ptr %5, align 8, !tbaa !28
  br label %27, !llvm.loop !48

48:                                               ; preds = %33
  ret void
}