; Function Attrs: nounwind uwtable
define dso_local void @list_objects_filter_copy(ptr noundef initializes((0, 88)) %0, ptr noundef %1) local_unnamed_addr #0 {
  tail call void @llvm.memcpy.p0.p0.i64(ptr noundef nonnull align 8 dereferenceable(88) %0, ptr noundef nonnull align 8 dereferenceable(88) %1, i64 88, i1 false)
  tail call void @strbuf_init(ptr noundef nonnull %0, i64 noundef 0) #16
  tail call void @strbuf_addbuf(ptr noundef nonnull %0, ptr noundef nonnull %1) #16
  %3 = getelementptr inbounds nuw i8, ptr %1, i64 32
  %4 = load ptr, ptr %3, align 8, !tbaa !18
  %.not.i = icmp eq ptr %4, null
  br i1 %.not.i, label %xstrdup_or_null.exit, label %5

5:                                                ; preds = %2
  %6 = tail call ptr @xstrdup(ptr noundef nonnull %4) #16
  br label %xstrdup_or_null.exit

xstrdup_or_null.exit:                             ; preds = %2, %5
  %7 = phi ptr [ %6, %5 ], [ null, %2 ]
  %8 = getelementptr inbounds nuw i8, ptr %0, i64 32
  store ptr %7, ptr %8, align 8, !tbaa !18
  %9 = getelementptr inbounds nuw i8, ptr %0, i64 72
  %10 = load i64, ptr %9, align 8, !tbaa !24
  %11 = icmp ugt i64 %10, 209622091746699450
  br i1 %11, label %12, label %st_mult.exit

12:                                               ; preds = %xstrdup_or_null.exit
  tail call void (ptr, ...) @die(ptr noundef nonnull @.str.33, i64 noundef 88, i64 noundef %10) #14
  unreachable

st_mult.exit:                                     ; preds = %xstrdup_or_null.exit
  %13 = mul nuw i64 %10, 88
  %14 = tail call ptr @xmalloc(i64 noundef %13) #16
  %15 = getelementptr inbounds nuw i8, ptr %0, i64 80
  store ptr %14, ptr %15, align 8, !tbaa !25
  %16 = getelementptr inbounds nuw i8, ptr %1, i64 64
  %17 = load i64, ptr %16, align 8, !tbaa !23
  %.not = icmp eq i64 %17, 0
  br i1 %.not, label %._crit_edge, label %.lr.ph

.lr.ph:                                           ; preds = %st_mult.exit
  %18 = getelementptr inbounds nuw i8, ptr %1, i64 80
  br label %19

._crit_edge:                                      ; preds = %19, %st_mult.exit
  ret void

19:                                               ; preds = %.lr.ph, %19
  %.015 = phi i64 [ 0, %.lr.ph ], [ %24, %19 ]
  %20 = load ptr, ptr %15, align 8, !tbaa !25
  %21 = getelementptr inbounds nuw %struct.list_objects_filter_options, ptr %20, i64 %.015
  %22 = load ptr, ptr %18, align 8, !tbaa !25
  %23 = getelementptr inbounds nuw %struct.list_objects_filter_options, ptr %22, i64 %.015
  tail call void @list_objects_filter_copy(ptr noundef %21, ptr noundef %23)
  %24 = add nuw i64 %.015, 1
  %25 = load i64, ptr %16, align 8, !tbaa !23
  %26 = icmp ult i64 %24, %25
  br i1 %26, label %19, label %._crit_edge, !llvm.loop !44
}